; Function Attrs: mustprogress uwtable
define i64 @_ZN4LIEF3ELF12CorePrStatus3setENS1_9Registers7AARCH64Em(ptr noundef nonnull align 8 dereferenceable(80) %0, i32 noundef %1, i64 noundef %2) local_unnamed_addr #3 align 2 {
  %4 = getelementptr inbounds i8, ptr %0, i64 48
  %5 = getelementptr inbounds i8, ptr %0, i64 76
  %6 = load i32, ptr %5, align 4
  %7 = getelementptr inbounds i8, ptr %0, i64 72
  %8 = load i32, ptr %7, align 8
  %9 = tail call i64 @_ZN4LIEF3ELF12set_reg_implINS0_12CorePrStatus9Registers7AARCH64EEEN2tl8expectedINS_4ok_tE11lief_errorsEET_mRSt6vectorIhSaIhEENS0_6Header5CLASSENS0_4ARCHE(i32 noundef %1, i64 noundef %2, ptr noundef nonnull align 8 dereferenceable(24) %4, i32 noundef %6, i32 noundef %8)
  ret i64 %9
}